target datalayout = "e-m:e-p270:32:32-p271:32:32-p272:64:64-i64:64-i128:128-f80:128-n8:16:32:64-S128"
target triple = "x86_64-pc-linux-gnu"

%struct.XLogReaderState = type { %struct.XLogReaderRoutine, i64, ptr, i64, i64, i64, i64, i64, i64, i64, i64, ptr, ptr, i64, i8, ptr, ptr, ptr, ptr, ptr, i32, %struct.WALSegmentContext, %struct.WALOpenSegment, i32, i64, i32, i64, i32, i64, i32, ptr, i32, ptr, i8, i8 }
%struct.XLogReaderRoutine = type { ptr, ptr, ptr }
%struct.WALSegmentContext = type { [1024 x i8], i32 }
%struct.WALOpenSegment = type { i32, i64, i32 }
%struct.DecodedXLogRecord = type { i64, i8, ptr, i64, i64, %struct.XLogRecord, i16, i32, ptr, i32, i32, [0 x %struct.DecodedBkpBlock] }
%struct.XLogRecord = type { i32, i32, i64, i8, i8, i32 }
%struct.DecodedBkpBlock = type { i8, %struct.RelFileLocator, i32, i32, i32, i8, i8, i8, ptr, i16, i16, i16, i8, i8, ptr, i16, i16 }
%struct.RelFileLocator = type { i32, i32, i32 }
%struct.ginxlogInsert = type { i16 }
%struct.ginxlogInsertEntry = type { i16, i8, %struct.IndexTupleData }
%struct.IndexTupleData = type { %struct.ItemPointerData, i16 }
%struct.ItemPointerData = type { %struct.BlockIdData, i16 }
%struct.BlockIdData = type { i16, i16 }
%struct.ginxlogInsertDataInternal = type { i16, %struct.PostingItem }
%struct.PostingItem = type { %struct.BlockIdData, %struct.ItemPointerData }
%struct.ginxlogSplit = type { %struct.RelFileLocator, i32, i32, i32, i16 }
%struct.ginxlogVacuumDataLeafPage = type { %struct.ginxlogRecompressDataLeaf }
%struct.ginxlogRecompressDataLeaf = type { i16 }
%struct.ginxlogDeleteListPages = type { %struct.GinMetaPageData, i32 }
%struct.GinMetaPageData = type { i32, i32, i32, i32, i64, i32, i32, i32, i64, i32 }

@.str = private unnamed_addr constant [22 x i8] c"isdata: %c isleaf: %c\00", align 1
@.str.1 = private unnamed_addr constant [17 x i8] c" children: %u/%u\00", align 1
@.str.2 = private unnamed_addr constant [19 x i8] c" (full page image)\00", align 1
@.str.3 = private unnamed_addr constant [41 x i8] c" (full page image, for WAL verification)\00", align 1
@.str.4 = private unnamed_addr constant [14 x i8] c" isdelete: %c\00", align 1
@.str.5 = private unnamed_addr constant [17 x i8] c" pitem: %u-%u/%u\00", align 1
@.str.6 = private unnamed_addr constant [16 x i8] c"isrootsplit: %c\00", align 1
@.str.7 = private unnamed_addr constant [23 x i8] c" isdata: %c isleaf: %c\00", align 1
@.str.8 = private unnamed_addr constant [13 x i8] c"ndeleted: %d\00", align 1

; Function Attrs: inlinehint nounwind uwtable
define internal zeroext i16 @ItemPointerGetOffsetNumberNoCheck(ptr noundef %0) #3 {
  %2 = alloca ptr, align 8
  store ptr %0, ptr %2, align 8
  %3 = load ptr, ptr %2, align 8
  %4 = getelementptr inbounds nuw %struct.ItemPointerData, ptr %3, i32 0, i32 1
  %5 = load i16, ptr %4, align 2
  ret i16 %5
}

; Function Attrs: inlinehint nounwind uwtable
define internal i32 @ItemPointerGetBlockNumberNoCheck(ptr noundef %0) #3 {
  %2 = alloca ptr, align 8
  store ptr %0, ptr %2, align 8
  %3 = load ptr, ptr %2, align 8
  %4 = getelementptr inbounds nuw %struct.ItemPointerData, ptr %3, i32 0, i32 0
  %5 = call i32 @BlockIdGetBlockNumber(ptr noundef %4)
  ret i32 %5
}

; Function Attrs: inlinehint nounwind uwtable
define internal zeroext i16 @ItemPointerGetOffsetNumber(ptr noundef %0) #3 {
  %2 = alloca ptr, align 8
  store ptr %0, ptr %2, align 8
  %3 = load ptr, ptr %2, align 8
  %4 = call zeroext i16 @ItemPointerGetOffsetNumberNoCheck(ptr noundef %3)
  ret i16 %4
}

; Function Attrs: inlinehint nounwind uwtable
define internal i32 @ItemPointerGetBlockNumber(ptr noundef %0) #3 {
  %2 = alloca ptr, align 8
  store ptr %0, ptr %2, align 8
  %3 = load ptr, ptr %2, align 8
  %4 = call i32 @ItemPointerGetBlockNumberNoCheck(ptr noundef %3)
  ret i32 %4
}

; Function Attrs: inlinehint nounwind uwtable
define internal i32 @BlockIdGetBlockNumber(ptr noundef %0) #3 {
  %2 = alloca ptr, align 8
  store ptr %0, ptr %2, align 8
  %3 = load ptr, ptr %2, align 8
  %4 = getelementptr inbounds nuw %struct.BlockIdData, ptr %3, i32 0, i32 0
  %5 = load i16, ptr %4, align 2
  %6 = zext i16 %5 to i32
  %7 = shl i32 %6, 16
  %8 = load ptr, ptr %2, align 8
  %9 = getelementptr inbounds nuw %struct.BlockIdData, ptr %8, i32 0, i32 1
  %10 = load i16, ptr %9, align 2
  %11 = zext i16 %10 to i32
  %12 = or i32 %7, %11
  ret i32 %12
}

; Function Attrs: nounwind uwtable
define dso_local void @gin_desc(ptr noundef %0, ptr noundef %1) #0 {
  %3 = alloca ptr, align 8
  %4 = alloca ptr, align 8
  %5 = alloca ptr, align 8
  %6 = alloca i8, align 1
  %7 = alloca ptr, align 8
  %8 = alloca ptr, align 8
  %9 = alloca i32, align 4
  %10 = alloca i32, align 4
  %11 = alloca ptr, align 8
  %12 = alloca ptr, align 8
  %13 = alloca ptr, align 8
  %14 = alloca ptr, align 8
  store ptr %0, ptr %3, align 8
  store ptr %1, ptr %4, align 8
  call void @llvm.lifetime.start.p0(i64 8, ptr %5) #5
  %15 = load ptr, ptr %4, align 8
  %16 = getelementptr inbounds nuw %struct.XLogReaderState, ptr %15, i32 0, i32 11
  %17 = load ptr, ptr %16, align 8
  %18 = getelementptr inbounds nuw %struct.DecodedXLogRecord, ptr %17, i32 0, i32 8
  %19 = load ptr, ptr %18, align 8
  store ptr %19, ptr %5, align 8
  call void @llvm.lifetime.start.p0(i64 1, ptr %6) #5
  %20 = load ptr, ptr %4, align 8
  %21 = getelementptr inbounds nuw %struct.XLogReaderState, ptr %20, i32 0, i32 11
  %22 = load ptr, ptr %21, align 8
  %23 = getelementptr inbounds nuw %struct.DecodedXLogRecord, ptr %22, i32 0, i32 5
  %24 = getelementptr inbounds nuw %struct.XLogRecord, ptr %23, i32 0, i32 3
  %25 = load i8, ptr %24, align 8
  %26 = zext i8 %25 to i32
  %27 = and i32 %26, -16
  %28 = trunc i32 %27 to i8
  store i8 %28, ptr %6, align 1
  %29 = load i8, ptr %6, align 1
  %30 = zext i8 %29 to i32
  switch i32 %30, label %196 [
    i32 16, label %196
    i32 32, label %31
    i32 48, label %136
    i32 64, label %196
    i32 144, label %161
    i32 80, label %196
    i32 96, label %196
    i32 112, label %196
    i32 128, label %191
  ]

31:                                               ; preds = %2
  call void @llvm.lifetime.start.p0(i64 8, ptr %7) #5
  %32 = load ptr, ptr %5, align 8
  store ptr %32, ptr %7, align 8
  %33 = load ptr, ptr %3, align 8
  %34 = load ptr, ptr %7, align 8
  %35 = getelementptr inbounds nuw %struct.ginxlogInsert, ptr %34, i32 0, i32 0
  %36 = load i16, ptr %35, align 2
  %37 = zext i16 %36 to i32
  %38 = and i32 %37, 1
  %39 = icmp ne i32 %38, 0
  %40 = select i1 %39, i32 84, i32 70
  %41 = load ptr, ptr %7, align 8
  %42 = getelementptr inbounds nuw %struct.ginxlogInsert, ptr %41, i32 0, i32 0
  %43 = load i16, ptr %42, align 2
  %44 = zext i16 %43 to i32
  %45 = and i32 %44, 2
  %46 = icmp ne i32 %45, 0
  %47 = select i1 %46, i32 84, i32 70
  call void (ptr, ptr, ...) @appendStringInfo(ptr noundef %33, ptr noundef @.str, i32 noundef %40, i32 noundef %47)
  %48 = load ptr, ptr %7, align 8
  %49 = getelementptr inbounds nuw %struct.ginxlogInsert, ptr %48, i32 0, i32 0
  %50 = load i16, ptr %49, align 2
  %51 = zext i16 %50 to i32
  %52 = and i32 %51, 2
  %53 = icmp ne i32 %52, 0
  br i1 %53, label %68, label %54

54:                                               ; preds = %31
  call void @llvm.lifetime.start.p0(i64 8, ptr %8) #5
  %55 = load ptr, ptr %5, align 8
  %56 = getelementptr inbounds nuw i8, ptr %55, i64 2
  store ptr %56, ptr %8, align 8
  call void @llvm.lifetime.start.p0(i64 4, ptr %9) #5
  call void @llvm.lifetime.start.p0(i64 4, ptr %10) #5
  %57 = load ptr, ptr %8, align 8
  %58 = call i32 @BlockIdGetBlockNumber(ptr noundef %57)
  store i32 %58, ptr %9, align 4
  %59 = load ptr, ptr %8, align 8
  %60 = getelementptr inbounds nuw i8, ptr %59, i64 4
  store ptr %60, ptr %8, align 8
  %61 = load ptr, ptr %8, align 8
  %62 = call i32 @BlockIdGetBlockNumber(ptr noundef %61)
  store i32 %62, ptr %10, align 4
  %63 = load ptr, ptr %8, align 8
  %64 = getelementptr inbounds nuw i8, ptr %63, i64 4
  store ptr %64, ptr %8, align 8
  %65 = load ptr, ptr %3, align 8
  %66 = load i32, ptr %9, align 4
  %67 = load i32, ptr %10, align 4
  call void (ptr, ptr, ...) @appendStringInfo(ptr noundef %65, ptr noundef @.str.1, i32 noundef %66, i32 noundef %67)
  call void @llvm.lifetime.end.p0(i64 4, ptr %10) #5
  call void @llvm.lifetime.end.p0(i64 4, ptr %9) #5
  call void @llvm.lifetime.end.p0(i64 8, ptr %8) #5
  br label %68

68:                                               ; preds = %54, %31
  %69 = load ptr, ptr %4, align 8
  %70 = getelementptr inbounds nuw %struct.XLogReaderState, ptr %69, i32 0, i32 11
  %71 = load ptr, ptr %70, align 8
  %72 = getelementptr inbounds nuw %struct.DecodedXLogRecord, ptr %71, i32 0, i32 11
  %73 = getelementptr inbounds [0 x %struct.DecodedBkpBlock], ptr %72, i64 0, i64 0
  %74 = getelementptr inbounds nuw %struct.DecodedBkpBlock, ptr %73, i32 0, i32 6
  %75 = load i8, ptr %74, align 1, !range !4, !noundef !5
  %76 = trunc i8 %75 to i1
  br i1 %76, label %77, label %91

77:                                               ; preds = %68
  %78 = load ptr, ptr %4, align 8
  %79 = getelementptr inbounds nuw %struct.XLogReaderState, ptr %78, i32 0, i32 11
  %80 = load ptr, ptr %79, align 8
  %81 = getelementptr inbounds nuw %struct.DecodedXLogRecord, ptr %80, i32 0, i32 11
  %82 = getelementptr inbounds [0 x %struct.DecodedBkpBlock], ptr %81, i64 0, i64 0
  %83 = getelementptr inbounds nuw %struct.DecodedBkpBlock, ptr %82, i32 0, i32 7
  %84 = load i8, ptr %83, align 2, !range !4, !noundef !5
  %85 = trunc i8 %84 to i1
  br i1 %85, label %86, label %88

86:                                               ; preds = %77
  %87 = load ptr, ptr %3, align 8
  call void @appendStringInfoString(ptr noundef %87, ptr noundef @.str.2)
  br label %90

88:                                               ; preds = %77
  %89 = load ptr, ptr %3, align 8
  call void @appendStringInfoString(ptr noundef %89, ptr noundef @.str.3)
  br label %90

90:                                               ; preds = %88, %86
  br label %135

91:                                               ; preds = %68
  call void @llvm.lifetime.start.p0(i64 8, ptr %11) #5
  %92 = load ptr, ptr %4, align 8
  %93 = call ptr @XLogRecGetBlockData(ptr noundef %92, i8 noundef zeroext 0, ptr noundef null)
  store ptr %93, ptr %11, align 8
  %94 = load ptr, ptr %7, align 8
  %95 = getelementptr inbounds nuw %struct.ginxlogInsert, ptr %94, i32 0, i32 0
  %96 = load i16, ptr %95, align 2
  %97 = zext i16 %96 to i32
  %98 = and i32 %97, 1
  %99 = icmp ne i32 %98, 0
  br i1 %99, label %107, label %100

100:                                              ; preds = %91
  %101 = load ptr, ptr %3, align 8
  %102 = load ptr, ptr %11, align 8
  %103 = getelementptr inbounds nuw %struct.ginxlogInsertEntry, ptr %102, i32 0, i32 1
  %104 = load i8, ptr %103, align 2, !range !4, !noundef !5
  %105 = trunc i8 %104 to i1
  %106 = select i1 %105, i32 84, i32 70
  call void (ptr, ptr, ...) @appendStringInfo(ptr noundef %101, ptr noundef @.str.4, i32 noundef %106)
  br label %134

107:                                              ; preds = %91
  %108 = load ptr, ptr %7, align 8
  %109 = getelementptr inbounds nuw %struct.ginxlogInsert, ptr %108, i32 0, i32 0
  %110 = load i16, ptr %109, align 2
  %111 = zext i16 %110 to i32
  %112 = and i32 %111, 2
  %113 = icmp ne i32 %112, 0
  br i1 %113, label %114, label %117

114:                                              ; preds = %107
  %115 = load ptr, ptr %3, align 8
  %116 = load ptr, ptr %11, align 8
  call void @desc_recompress_leaf(ptr noundef %115, ptr noundef %116)
  br label %133

117:                                              ; preds = %107
  call void @llvm.lifetime.start.p0(i64 8, ptr %12) #5
  %118 = load ptr, ptr %11, align 8
  store ptr %118, ptr %12, align 8
  %119 = load ptr, ptr %3, align 8
  %120 = load ptr, ptr %12, align 8
  %121 = getelementptr inbounds nuw %struct.ginxlogInsertDataInternal, ptr %120, i32 0, i32 1
  %122 = getelementptr inbounds nuw %struct.PostingItem, ptr %121, i32 0, i32 0
  %123 = call i32 @BlockIdGetBlockNumber(ptr noundef %122)
  %124 = load ptr, ptr %12, align 8
  %125 = getelementptr inbounds nuw %struct.ginxlogInsertDataInternal, ptr %124, i32 0, i32 1
  %126 = getelementptr inbounds nuw %struct.PostingItem, ptr %125, i32 0, i32 1
  %127 = call i32 @ItemPointerGetBlockNumber(ptr noundef %126)
  %128 = load ptr, ptr %12, align 8
  %129 = getelementptr inbounds nuw %struct.ginxlogInsertDataInternal, ptr %128, i32 0, i32 1
  %130 = getelementptr inbounds nuw %struct.PostingItem, ptr %129, i32 0, i32 1
  %131 = call zeroext i16 @ItemPointerGetOffsetNumber(ptr noundef %130)
  %132 = zext i16 %131 to i32
  call void (ptr, ptr, ...) @appendStringInfo(ptr noundef %119, ptr noundef @.str.5, i32 noundef %123, i32 noundef %127, i32 noundef %132)
  call void @llvm.lifetime.end.p0(i64 8, ptr %12) #5
  br label %133

133:                                              ; preds = %117, %114
  br label %134

134:                                              ; preds = %133, %100
  call void @llvm.lifetime.end.p0(i64 8, ptr %11) #5
  br label %135

135:                                              ; preds = %134, %90
  call void @llvm.lifetime.end.p0(i64 8, ptr %7) #5
  br label %196

136:                                              ; preds = %2
  call void @llvm.lifetime.start.p0(i64 8, ptr %13) #5
  %137 = load ptr, ptr %5, align 8
  store ptr %137, ptr %13, align 8
  %138 = load ptr, ptr %3, align 8
  %139 = load ptr, ptr %5, align 8
  %140 = getelementptr inbounds nuw %struct.ginxlogSplit, ptr %139, i32 0, i32 4
  %141 = load i16, ptr %140, align 4
  %142 = zext i16 %141 to i32
  %143 = and i32 %142, 4
  %144 = icmp ne i32 %143, 0
  %145 = select i1 %144, i32 84, i32 70
  call void (ptr, ptr, ...) @appendStringInfo(ptr noundef %138, ptr noundef @.str.6, i32 noundef %145)
  %146 = load ptr, ptr %3, align 8
  %147 = load ptr, ptr %13, align 8
  %148 = getelementptr inbounds nuw %struct.ginxlogSplit, ptr %147, i32 0, i32 4
  %149 = load i16, ptr %148, align 4
  %150 = zext i16 %149 to i32
  %151 = and i32 %150, 1
  %152 = icmp ne i32 %151, 0
  %153 = select i1 %152, i32 84, i32 70
  %154 = load ptr, ptr %13, align 8
  %155 = getelementptr inbounds nuw %struct.ginxlogSplit, ptr %154, i32 0, i32 4
  %156 = load i16, ptr %155, align 4
  %157 = zext i16 %156 to i32
  %158 = and i32 %157, 2
  %159 = icmp ne i32 %158, 0
  %160 = select i1 %159, i32 84, i32 70
  call void (ptr, ptr, ...) @appendStringInfo(ptr noundef %146, ptr noundef @.str.7, i32 noundef %153, i32 noundef %160)
  call void @llvm.lifetime.end.p0(i64 8, ptr %13) #5
  br label %196

161:                                              ; preds = %2
  %162 = load ptr, ptr %4, align 8
  %163 = getelementptr inbounds nuw %struct.XLogReaderState, ptr %162, i32 0, i32 11
  %164 = load ptr, ptr %163, align 8
  %165 = getelementptr inbounds nuw %struct.DecodedXLogRecord, ptr %164, i32 0, i32 11
  %166 = getelementptr inbounds [0 x %struct.DecodedBkpBlock], ptr %165, i64 0, i64 0
  %167 = getelementptr inbounds nuw %struct.DecodedBkpBlock, ptr %166, i32 0, i32 6
  %168 = load i8, ptr %167, align 1, !range !4, !noundef !5
  %169 = trunc i8 %168 to i1
  br i1 %169, label %170, label %184

170:                                              ; preds = %161
  %171 = load ptr, ptr %4, align 8
  %172 = getelementptr inbounds nuw %struct.XLogReaderState, ptr %171, i32 0, i32 11
  %173 = load ptr, ptr %172, align 8
  %174 = getelementptr inbounds nuw %struct.DecodedXLogRecord, ptr %173, i32 0, i32 11
  %175 = getelementptr inbounds [0 x %struct.DecodedBkpBlock], ptr %174, i64 0, i64 0
  %176 = getelementptr inbounds nuw %struct.DecodedBkpBlock, ptr %175, i32 0, i32 7
  %177 = load i8, ptr %176, align 2, !range !4, !noundef !5
  %178 = trunc i8 %177 to i1
  br i1 %178, label %179, label %181

179:                                              ; preds = %170
  %180 = load ptr, ptr %3, align 8
  call void @appendStringInfoString(ptr noundef %180, ptr noundef @.str.2)
  br label %183

181:                                              ; preds = %170
  %182 = load ptr, ptr %3, align 8
  call void @appendStringInfoString(ptr noundef %182, ptr noundef @.str.3)
  br label %183

183:                                              ; preds = %181, %179
  br label %190

184:                                              ; preds = %161
  call void @llvm.lifetime.start.p0(i64 8, ptr %14) #5
  %185 = load ptr, ptr %4, align 8
  %186 = call ptr @XLogRecGetBlockData(ptr noundef %185, i8 noundef zeroext 0, ptr noundef null)
  store ptr %186, ptr %14, align 8
  %187 = load ptr, ptr %3, align 8
  %188 = load ptr, ptr %14, align 8
  %189 = getelementptr inbounds nuw %struct.ginxlogVacuumDataLeafPage, ptr %188, i32 0, i32 0
  call void @desc_recompress_leaf(ptr noundef %187, ptr noundef %189)
  call void @llvm.lifetime.end.p0(i64 8, ptr %14) #5
  br label %190

190:                                              ; preds = %184, %183
  br label %196

191:                                              ; preds = %2
  %192 = load ptr, ptr %3, align 8
  %193 = load ptr, ptr %5, align 8
  %194 = getelementptr inbounds nuw %struct.ginxlogDeleteListPages, ptr %193, i32 0, i32 1
  %195 = load i32, ptr %194, align 8
  call void (ptr, ptr, ...) @appendStringInfo(ptr noundef %192, ptr noundef @.str.8, i32 noundef %195)
  br label %196

196:                                              ; preds = %2, %191, %2, %2, %2, %190, %2, %136, %135, %2
  call void @llvm.lifetime.end.p0(i64 1, ptr %6) #5
  call void @llvm.lifetime.end.p0(i64 8, ptr %5) #5
  ret void
}