; Function Attrs: nounwind uwtable
define dso_local void @gin_desc(ptr noundef %0, ptr noundef %1) local_unnamed_addr #0 {
  %3 = getelementptr inbounds nuw i8, ptr %1, i64 104
  %4 = load ptr, ptr %3, align 8
  %5 = getelementptr inbounds nuw i8, ptr %4, i64 72
  %6 = load ptr, ptr %5, align 8
  %7 = getelementptr inbounds nuw i8, ptr %4, i64 56
  %8 = load i8, ptr %7, align 8
  %9 = zext i8 %8 to i32
  %10 = add nsw i32 %9, -32
  %11 = lshr i32 %10, 4
  switch i32 %11, label %99 [
    i32 6, label %96
    i32 0, label %12
    i32 1, label %73
    i32 7, label %84
  ]

12:                                               ; preds = %2
  %13 = load i16, ptr %6, align 2
  %14 = zext i16 %13 to i32
  %15 = and i32 %14, 1
  %.not48 = icmp eq i32 %15, 0
  %16 = select i1 %.not48, i32 70, i32 84
  %17 = and i32 %14, 2
  %.not49 = icmp eq i32 %17, 0
  %18 = select i1 %.not49, i32 70, i32 84
  tail call void (ptr, ptr, ...) @appendStringInfo(ptr noundef %0, ptr noundef nonnull @.str, i32 noundef %16, i32 noundef %18) #3
  %19 = load i16, ptr %6, align 2
  %20 = and i16 %19, 2
  %.not50 = icmp eq i16 %20, 0
  br i1 %.not50, label %21, label %34

21:                                               ; preds = %12
  %22 = getelementptr inbounds nuw i8, ptr %6, i64 2
  %.val = load i16, ptr %22, align 2
  %23 = getelementptr i8, ptr %6, i64 4
  %.val53 = load i16, ptr %23, align 2
  %24 = zext i16 %.val to i32
  %25 = shl nuw i32 %24, 16
  %26 = zext i16 %.val53 to i32
  %27 = or disjoint i32 %25, %26
  %28 = getelementptr inbounds nuw i8, ptr %6, i64 6
  %.val54 = load i16, ptr %28, align 2
  %29 = getelementptr i8, ptr %6, i64 8
  %.val55 = load i16, ptr %29, align 2
  %30 = zext i16 %.val54 to i32
  %31 = shl nuw i32 %30, 16
  %32 = zext i16 %.val55 to i32
  %33 = or disjoint i32 %31, %32
  tail call void (ptr, ptr, ...) @appendStringInfo(ptr noundef %0, ptr noundef nonnull @.str.1, i32 noundef %27, i32 noundef %33) #3
  br label %34

34:                                               ; preds = %21, %12
  %35 = load ptr, ptr %3, align 8
  %36 = getelementptr inbounds nuw i8, ptr %35, i64 117
  %37 = load i8, ptr %36, align 1, !range !4, !noundef !5
  %38 = trunc nuw i8 %37 to i1
  br i1 %38, label %39, label %45

39:                                               ; preds = %34
  %40 = getelementptr inbounds nuw i8, ptr %35, i64 118
  %41 = load i8, ptr %40, align 2, !range !4, !noundef !5
  %42 = trunc nuw i8 %41 to i1
  br i1 %42, label %43, label %44

43:                                               ; preds = %39
  tail call void @appendStringInfoString(ptr noundef %0, ptr noundef nonnull @.str.2) #3
  br label %99

44:                                               ; preds = %39
  tail call void @appendStringInfoString(ptr noundef %0, ptr noundef nonnull @.str.3) #3
  br label %99

45:                                               ; preds = %34
  %46 = tail call ptr @XLogRecGetBlockData(ptr noundef nonnull %1, i8 noundef zeroext 0, ptr noundef null) #3
  %47 = load i16, ptr %6, align 2
  %48 = zext i16 %47 to i32
  %49 = and i32 %48, 1
  %.not51 = icmp eq i32 %49, 0
  br i1 %.not51, label %50, label %55

50:                                               ; preds = %45
  %51 = getelementptr inbounds nuw i8, ptr %46, i64 2
  %52 = load i8, ptr %51, align 2, !range !4, !noundef !5
  %53 = trunc nuw i8 %52 to i1
  %54 = select i1 %53, i32 84, i32 70
  tail call void (ptr, ptr, ...) @appendStringInfo(ptr noundef %0, ptr noundef nonnull @.str.4, i32 noundef %54) #3
  br label %99

55:                                               ; preds = %45
  %56 = and i32 %48, 2
  %.not52 = icmp eq i32 %56, 0
  br i1 %.not52, label %58, label %57

57:                                               ; preds = %55
  tail call fastcc void @desc_recompress_leaf(ptr noundef %0, ptr noundef %46)
  br label %99

58:                                               ; preds = %55
  %59 = getelementptr inbounds nuw i8, ptr %46, i64 2
  %.val56 = load i16, ptr %59, align 2
  %60 = getelementptr i8, ptr %46, i64 4
  %.val57 = load i16, ptr %60, align 2
  %61 = zext i16 %.val56 to i32
  %62 = shl nuw i32 %61, 16
  %63 = zext i16 %.val57 to i32
  %64 = or disjoint i32 %62, %63
  %65 = getelementptr inbounds nuw i8, ptr %46, i64 6
  %.val58 = load i16, ptr %65, align 2
  %66 = getelementptr i8, ptr %46, i64 8
  %.val59 = load i16, ptr %66, align 2
  %67 = zext i16 %.val58 to i32
  %68 = shl nuw i32 %67, 16
  %69 = zext i16 %.val59 to i32
  %70 = or disjoint i32 %68, %69
  %71 = getelementptr i8, ptr %46, i64 10
  %.val60 = load i16, ptr %71, align 2
  %72 = zext i16 %.val60 to i32
  tail call void (ptr, ptr, ...) @appendStringInfo(ptr noundef %0, ptr noundef nonnull @.str.5, i32 noundef %64, i32 noundef %70, i32 noundef %72) #3
  br label %99

73:                                               ; preds = %2
  %74 = getelementptr inbounds nuw i8, ptr %6, i64 24
  %75 = load i16, ptr %74, align 4
  %76 = and i16 %75, 4
  %.not = icmp eq i16 %76, 0
  %77 = select i1 %.not, i32 70, i32 84
  tail call void (ptr, ptr, ...) @appendStringInfo(ptr noundef %0, ptr noundef nonnull @.str.6, i32 noundef %77) #3
  %78 = load i16, ptr %74, align 4
  %79 = zext i16 %78 to i32
  %80 = and i32 %79, 1
  %.not46 = icmp eq i32 %80, 0
  %81 = select i1 %.not46, i32 70, i32 84
  %82 = and i32 %79, 2
  %.not47 = icmp eq i32 %82, 0
  %83 = select i1 %.not47, i32 70, i32 84
  tail call void (ptr, ptr, ...) @appendStringInfo(ptr noundef %0, ptr noundef nonnull @.str.7, i32 noundef %81, i32 noundef %83) #3
  br label %99

84:                                               ; preds = %2
  %85 = getelementptr inbounds nuw i8, ptr %4, i64 117
  %86 = load i8, ptr %85, align 1, !range !4, !noundef !5
  %87 = trunc nuw i8 %86 to i1
  br i1 %87, label %88, label %94

88:                                               ; preds = %84
  %89 = getelementptr inbounds nuw i8, ptr %4, i64 118
  %90 = load i8, ptr %89, align 2, !range !4, !noundef !5
  %91 = trunc nuw i8 %90 to i1
  br i1 %91, label %92, label %93

92:                                               ; preds = %88
  tail call void @appendStringInfoString(ptr noundef %0, ptr noundef nonnull @.str.2) #3
  br label %99

93:                                               ; preds = %88
  tail call void @appendStringInfoString(ptr noundef %0, ptr noundef nonnull @.str.3) #3
  br label %99

94:                                               ; preds = %84
  %95 = tail call ptr @XLogRecGetBlockData(ptr noundef nonnull %1, i8 noundef zeroext 0, ptr noundef null) #3
  tail call fastcc void @desc_recompress_leaf(ptr noundef %0, ptr noundef %95)
  br label %99

96:                                               ; preds = %2
  %97 = getelementptr inbounds nuw i8, ptr %6, i64 56
  %98 = load i32, ptr %97, align 8
  tail call void (ptr, ptr, ...) @appendStringInfo(ptr noundef %0, ptr noundef nonnull @.str.8, i32 noundef %98) #3
  br label %99

99:                                               ; preds = %44, %43, %57, %58, %50, %94, %93, %92, %96, %73, %2
  ret void
}